; Function Attrs: mustprogress uwtable
define noundef i64 @_ZN3nix10LocalStore16queryValidPathIdERNS0_5StateERKNS_9StorePathE(ptr noundef nonnull align 8 dereferenceable(504) %0, ptr nocapture noundef nonnull readonly align 8 dereferenceable(64) %1, ptr noundef nonnull align 8 dereferenceable(32) %2) local_unnamed_addr #5 align 2 personality ptr @__gxx_personality_v0 {
  %4 = alloca %"class.nix::SQLiteStmt::Use", align 8
  %5 = alloca %"class.nix::SQLiteStmt::Use", align 8
  %6 = alloca %"class.std::__cxx11::basic_string", align 8
  %7 = alloca %"class.std::__cxx11::basic_string", align 8
  %8 = alloca %"class.std::allocator", align 1
  %9 = alloca %"class.std::__cxx11::basic_string", align 8
  %10 = getelementptr inbounds i8, ptr %1, i64 8
  %11 = load ptr, ptr %10, align 8
  %12 = getelementptr inbounds i8, ptr %11, i64 144
  call void @_ZN3nix10SQLiteStmt3UseC1ERS0_(ptr noundef nonnull align 8 dereferenceable(12) %5, ptr noundef nonnull align 8 dereferenceable(48) %12)
  %13 = load ptr, ptr %0, align 8
  %14 = getelementptr i8, ptr %13, i64 -32
  %15 = load i64, ptr %14, align 8
  %16 = getelementptr inbounds i8, ptr %0, i64 %15
  invoke void @_ZNK3nix14StoreDirConfig14printStorePathB5cxx11ERKNS_9StorePathE(ptr dead_on_unwind nonnull writable sret(%"class.std::__cxx11::basic_string") align 8 %6, ptr noundef nonnull align 8 dereferenceable(344) %16, ptr noundef nonnull align 8 dereferenceable(32) %2)
          to label %17 unwind label %39

17:                                               ; preds = %3
  %18 = load ptr, ptr %6, align 8
  %19 = getelementptr inbounds i8, ptr %6, i64 8
  %20 = load i64, ptr %19, align 8
  %21 = invoke noundef nonnull align 8 dereferenceable(12) ptr @_ZN3nix10SQLiteStmt3UseclESt17basic_string_viewIcSt11char_traitsIcEEb(ptr noundef nonnull align 8 dereferenceable(12) %5, i64 %20, ptr %18, i1 noundef zeroext true)
          to label %22 unwind label %41

22:                                               ; preds = %17
  call void @llvm.memcpy.p0.p0.i64(ptr noundef nonnull align 8 dereferenceable(16) %4, ptr noundef nonnull align 8 dereferenceable(16) %21, i64 16, i1 false)
  %23 = load ptr, ptr %6, align 8
  %24 = getelementptr inbounds i8, ptr %6, i64 16
  %25 = icmp eq ptr %23, %24
  br i1 %25, label %_ZNKSt7__cxx1112basic_stringIcSt11char_traitsIcESaIcEE11_M_is_localEv.exit.thread.i.i, label %_ZNKSt7__cxx1112basic_stringIcSt11char_traitsIcESaIcEE11_M_is_localEv.exit.i.i

_ZNKSt7__cxx1112basic_stringIcSt11char_traitsIcESaIcEE11_M_is_localEv.exit.thread.i.i: ; preds = %22
  %26 = load i64, ptr %19, align 8
  %27 = icmp ult i64 %26, 16
  call void @llvm.assume(i1 %27)
  br label %_ZNSt7__cxx1112basic_stringIcSt11char_traitsIcESaIcEED2Ev.exit

_ZNKSt7__cxx1112basic_stringIcSt11char_traitsIcESaIcEE11_M_is_localEv.exit.i.i: ; preds = %22
  call void @_ZdlPv(ptr noundef %23) #36
  br label %_ZNSt7__cxx1112basic_stringIcSt11char_traitsIcESaIcEED2Ev.exit

_ZNSt7__cxx1112basic_stringIcSt11char_traitsIcESaIcEED2Ev.exit: ; preds = %_ZNKSt7__cxx1112basic_stringIcSt11char_traitsIcESaIcEE11_M_is_localEv.exit.thread.i.i, %_ZNKSt7__cxx1112basic_stringIcSt11char_traitsIcESaIcEE11_M_is_localEv.exit.i.i
  call void @_ZNSaIcED2Ev(ptr noundef nonnull align 1 dereferenceable(1) %6) #33
  call void @_ZN3nix10SQLiteStmt3UseD1Ev(ptr noundef nonnull align 8 dereferenceable(12) %5) #33
  %28 = invoke noundef zeroext i1 @_ZN3nix10SQLiteStmt3Use4nextEv(ptr noundef nonnull align 8 dereferenceable(12) %4)
          to label %29 unwind label %43

29:                                               ; preds = %_ZNSt7__cxx1112basic_stringIcSt11char_traitsIcESaIcEED2Ev.exit
  br i1 %28, label %52, label %30

30:                                               ; preds = %29
  %31 = call ptr @__cxa_allocate_exception(i64 376) #33
  call void @_ZNSaIcEC1Ev(ptr noundef nonnull align 1 dereferenceable(1) %8) #33
  invoke void @_ZNSt7__cxx1112basic_stringIcSt11char_traitsIcESaIcEEC2IS3_EEPKcRKS3_(ptr noundef nonnull align 8 dereferenceable(32) %7, ptr noundef nonnull @.str.101, ptr noundef nonnull align 1 dereferenceable(1) %8)
          to label %32 unwind label %.thread

32:                                               ; preds = %30
  %33 = load ptr, ptr %0, align 8
  %34 = getelementptr i8, ptr %33, i64 -32
  %35 = load i64, ptr %34, align 8
  %36 = getelementptr inbounds i8, ptr %0, i64 %35
  invoke void @_ZNK3nix14StoreDirConfig14printStorePathB5cxx11ERKNS_9StorePathE(ptr dead_on_unwind nonnull writable sret(%"class.std::__cxx11::basic_string") align 8 %9, ptr noundef nonnull align 8 dereferenceable(344) %36, ptr noundef nonnull align 8 dereferenceable(32) %2)
          to label %37 unwind label %46

37:                                               ; preds = %32
  invoke void @_ZN3nix11InvalidPathCI2NS_9BaseErrorEIJNSt7__cxx1112basic_stringIcSt11char_traitsIcESaIcEEEEEERKS6_DpRKT_(ptr noundef nonnull align 8 dereferenceable(376) %31, ptr noundef nonnull align 8 dereferenceable(32) %7, ptr noundef nonnull align 8 dereferenceable(32) %9)
          to label %38 unwind label %48

38:                                               ; preds = %37
  invoke void @__cxa_throw(ptr nonnull %31, ptr nonnull @_ZTIN3nix11InvalidPathE, ptr nonnull @_ZN3nix11InvalidPathD2Ev) #34
          to label %56 unwind label %48

39:                                               ; preds = %3
  %40 = landingpad { ptr, i32 }
          cleanup
  br label %55

41:                                               ; preds = %17
  %42 = landingpad { ptr, i32 }
          cleanup
  call void @_ZNSt7__cxx1112basic_stringIcSt11char_traitsIcESaIcEED2Ev(ptr noundef nonnull align 8 dereferenceable(32) %6) #33
  br label %55

43:                                               ; preds = %52, %_ZNSt7__cxx1112basic_stringIcSt11char_traitsIcESaIcEED2Ev.exit
  %44 = landingpad { ptr, i32 }
          cleanup
  br label %55

.thread:                                          ; preds = %30
  %45 = landingpad { ptr, i32 }
          cleanup
  call void @_ZNSaIcED1Ev(ptr noundef nonnull align 1 dereferenceable(1) %8) #33
  br label %51

46:                                               ; preds = %32
  %47 = landingpad { ptr, i32 }
          cleanup
  br label %50

48:                                               ; preds = %38, %37
  %.0 = phi i1 [ false, %38 ], [ true, %37 ]
  %49 = landingpad { ptr, i32 }
          cleanup
  call void @_ZNSt7__cxx1112basic_stringIcSt11char_traitsIcESaIcEED2Ev(ptr noundef nonnull align 8 dereferenceable(32) %9) #33
  br label %50

50:                                               ; preds = %46, %48
  %.pn15 = phi { ptr, i32 } [ %49, %48 ], [ %47, %46 ]
  %.1 = phi i1 [ %.0, %48 ], [ true, %46 ]
  call void @_ZNSt7__cxx1112basic_stringIcSt11char_traitsIcESaIcEED2Ev(ptr noundef nonnull align 8 dereferenceable(32) %7) #33
  call void @_ZNSaIcED1Ev(ptr noundef nonnull align 1 dereferenceable(1) %8) #33
  br i1 %.1, label %51, label %55

51:                                               ; preds = %.thread, %50
  %.pn15.pn23 = phi { ptr, i32 } [ %45, %.thread ], [ %.pn15, %50 ]
  call void @__cxa_free_exception(ptr %31) #33
  br label %55

52:                                               ; preds = %29
  %53 = invoke noundef i64 @_ZN3nix10SQLiteStmt3Use6getIntEi(ptr noundef nonnull align 8 dereferenceable(12) %4, i32 noundef 0)
          to label %54 unwind label %43

54:                                               ; preds = %52
  call void @_ZN3nix10SQLiteStmt3UseD1Ev(ptr noundef nonnull align 8 dereferenceable(12) %4) #33
  ret i64 %53

55:                                               ; preds = %43, %51, %50, %39, %41
  %.sink = phi ptr [ %5, %41 ], [ %5, %39 ], [ %4, %50 ], [ %4, %51 ], [ %4, %43 ]
  %.pn18.pn = phi { ptr, i32 } [ %42, %41 ], [ %40, %39 ], [ %.pn15, %50 ], [ %.pn15.pn23, %51 ], [ %44, %43 ]
  call void @_ZN3nix10SQLiteStmt3UseD1Ev(ptr noundef nonnull align 8 dereferenceable(12) %.sink) #33
  resume { ptr, i32 } %.pn18.pn

56:                                               ; preds = %38
  unreachable
}